target datalayout = "e-m:e-p270:32:32-p271:32:32-p272:64:64-i64:64-i128:128-f80:128-n8:16:32:64-S128"
target triple = "x86_64-pc-linux-gnu"

%struct.ScratchBuf = type { [65536 x i8], i32 }

@scratch_buffer = dso_local global %struct.ScratchBuf zeroinitializer, align 4
@.str.1 = private unnamed_addr constant [40 x i8] c"Scratch buffer size (%d chars) exceeded\00", align 1

; Function Attrs: nounwind uwtable
define dso_local void @scratch_buffer_append_char(i8 noundef signext %0) #0 {
  %2 = alloca i8, align 1
  store i8 %0, ptr %2, align 1
  %3 = load i32, ptr getelementptr inbounds (%struct.ScratchBuf, ptr @scratch_buffer, i32 0, i32 1), align 4
  %4 = add i32 %3, 1
  %5 = icmp ugt i32 %4, 65535
  br i1 %5, label %6, label %7

6:                                                ; preds = %1
  call void (ptr, ...) @error_exit(ptr noundef @.str.1, i32 noundef 65535) #9
  unreachable

7:                                                ; preds = %1
  %8 = load i8, ptr %2, align 1
  %9 = load i32, ptr getelementptr inbounds (%struct.ScratchBuf, ptr @scratch_buffer, i32 0, i32 1), align 4
  %10 = add i32 %9, 1
  store i32 %10, ptr getelementptr inbounds (%struct.ScratchBuf, ptr @scratch_buffer, i32 0, i32 1), align 4
  %11 = zext i32 %9 to i64
  %12 = getelementptr inbounds [65536 x i8], ptr @scratch_buffer, i64 0, i64 %11
  store i8 %8, ptr %12, align 1
  ret void
}