; Function Attrs: nounwind uwtable
define dso_local void @scratch_buffer_append_char(i8 noundef signext %0) local_unnamed_addr #7 {
  %2 = load i32, ptr getelementptr inbounds (%struct.ScratchBuf, ptr @scratch_buffer, i64 0, i32 1), align 4
  %3 = add i32 %2, 1
  %4 = icmp ugt i32 %3, 65535
  br i1 %4, label %5, label %6

5:                                                ; preds = %1
  tail call void (ptr, ...) @error_exit(ptr noundef nonnull @.str.1, i32 noundef 65535) #22
  unreachable

6:                                                ; preds = %1
  store i32 %3, ptr getelementptr inbounds (%struct.ScratchBuf, ptr @scratch_buffer, i64 0, i32 1), align 4
  %7 = zext i32 %2 to i64
  %8 = getelementptr inbounds [65536 x i8], ptr @scratch_buffer, i64 0, i64 %7
  store i8 %0, ptr %8, align 1
  ret void
}